target datalayout = "e-m:e-p270:32:32-p271:32:32-p272:64:64-i64:64-i128:128-f80:128-n8:16:32:64-S128"
target triple = "x86_64-pc-linux-gnu"

%struct.dtMeshTile = type { i32, i32, ptr, ptr, ptr, ptr, ptr, ptr, ptr, ptr, ptr, ptr, i32, i32, ptr }
%struct.dtMeshHeader = type { i32, i32, i32, i32, i32, i32, i32, i32, i32, i32, i32, i32, i32, i32, i32, float, float, float, [3 x float], [3 x float], float }
%struct.dtBVNode = type { [3 x i16], [3 x i16], i32 }

; Function Attrs: mustprogress nounwind uwtable
define linkonce_odr noundef i32 @_Z6duRGBAiiii(i32 noundef %0, i32 noundef %1, i32 noundef %2, i32 noundef %3) #2 comdat {
  %5 = alloca i32, align 4
  %6 = alloca i32, align 4
  %7 = alloca i32, align 4
  %8 = alloca i32, align 4
  store i32 %0, ptr %5, align 4
  store i32 %1, ptr %6, align 4
  store i32 %2, ptr %7, align 4
  store i32 %3, ptr %8, align 4
  %9 = load i32, ptr %5, align 4
  %10 = load i32, ptr %6, align 4
  %11 = shl i32 %10, 8
  %12 = or i32 %9, %11
  %13 = load i32, ptr %7, align 4
  %14 = shl i32 %13, 16
  %15 = or i32 %12, %14
  %16 = load i32, ptr %8, align 4
  %17 = shl i32 %16, 24
  %18 = or i32 %15, %17
  ret i32 %18
}

; Function Attrs: mustprogress uwtable
define internal void @_ZL18drawMeshTileBVTreeP11duDebugDrawPK10dtMeshTile(ptr noundef %0, ptr noundef %1) #0 {
  %3 = alloca ptr, align 8
  %4 = alloca ptr, align 8
  %5 = alloca float, align 4
  %6 = alloca i32, align 4
  %7 = alloca ptr, align 8
  store ptr %0, ptr %3, align 8
  store ptr %1, ptr %4, align 8
  %8 = load ptr, ptr %4, align 8
  %9 = getelementptr inbounds %struct.dtMeshTile, ptr %8, i32 0, i32 2
  %10 = load ptr, ptr %9, align 8
  %11 = getelementptr inbounds %struct.dtMeshHeader, ptr %10, i32 0, i32 20
  %12 = load float, ptr %11, align 4
  %13 = fdiv float 1.000000e+00, %12
  store float %13, ptr %5, align 4
  %14 = load ptr, ptr %3, align 8
  %15 = load ptr, ptr %14, align 8
  %16 = getelementptr inbounds ptr, ptr %15, i64 4
  %17 = load ptr, ptr %16, align 8
  call void %17(ptr noundef nonnull align 8 dereferenceable(8) %14, i32 noundef 1, float noundef 1.000000e+00)
  store i32 0, ptr %6, align 4
  br label %18

18:                                               ; preds = %125, %2
  %19 = load i32, ptr %6, align 4
  %20 = load ptr, ptr %4, align 8
  %21 = getelementptr inbounds %struct.dtMeshTile, ptr %20, i32 0, i32 2
  %22 = load ptr, ptr %21, align 8
  %23 = getelementptr inbounds %struct.dtMeshHeader, ptr %22, i32 0, i32 12
  %24 = load i32, ptr %23, align 4
  %25 = icmp slt i32 %19, %24
  br i1 %25, label %26, label %128

26:                                               ; preds = %18
  %27 = load ptr, ptr %4, align 8
  %28 = getelementptr inbounds %struct.dtMeshTile, ptr %27, i32 0, i32 9
  %29 = load ptr, ptr %28, align 8
  %30 = load i32, ptr %6, align 4
  %31 = sext i32 %30 to i64
  %32 = getelementptr inbounds %struct.dtBVNode, ptr %29, i64 %31
  store ptr %32, ptr %7, align 8
  %33 = load ptr, ptr %7, align 8
  %34 = getelementptr inbounds %struct.dtBVNode, ptr %33, i32 0, i32 2
  %35 = load i32, ptr %34, align 4
  %36 = icmp slt i32 %35, 0
  br i1 %36, label %37, label %38

37:                                               ; preds = %26
  br label %125

38:                                               ; preds = %26
  %39 = load ptr, ptr %3, align 8
  %40 = load ptr, ptr %4, align 8
  %41 = getelementptr inbounds %struct.dtMeshTile, ptr %40, i32 0, i32 2
  %42 = load ptr, ptr %41, align 8
  %43 = getelementptr inbounds %struct.dtMeshHeader, ptr %42, i32 0, i32 18
  %44 = getelementptr inbounds [3 x float], ptr %43, i64 0, i64 0
  %45 = load float, ptr %44, align 4
  %46 = load ptr, ptr %7, align 8
  %47 = getelementptr inbounds %struct.dtBVNode, ptr %46, i32 0, i32 0
  %48 = getelementptr inbounds [3 x i16], ptr %47, i64 0, i64 0
  %49 = load i16, ptr %48, align 4
  %50 = zext i16 %49 to i32
  %51 = sitofp i32 %50 to float
  %52 = load float, ptr %5, align 4
  %53 = call float @llvm.fmuladd.f32(float %51, float %52, float %45)
  %54 = load ptr, ptr %4, align 8
  %55 = getelementptr inbounds %struct.dtMeshTile, ptr %54, i32 0, i32 2
  %56 = load ptr, ptr %55, align 8
  %57 = getelementptr inbounds %struct.dtMeshHeader, ptr %56, i32 0, i32 18
  %58 = getelementptr inbounds [3 x float], ptr %57, i64 0, i64 1
  %59 = load float, ptr %58, align 4
  %60 = load ptr, ptr %7, align 8
  %61 = getelementptr inbounds %struct.dtBVNode, ptr %60, i32 0, i32 0
  %62 = getelementptr inbounds [3 x i16], ptr %61, i64 0, i64 1
  %63 = load i16, ptr %62, align 2
  %64 = zext i16 %63 to i32
  %65 = sitofp i32 %64 to float
  %66 = load float, ptr %5, align 4
  %67 = call float @llvm.fmuladd.f32(float %65, float %66, float %59)
  %68 = load ptr, ptr %4, align 8
  %69 = getelementptr inbounds %struct.dtMeshTile, ptr %68, i32 0, i32 2
  %70 = load ptr, ptr %69, align 8
  %71 = getelementptr inbounds %struct.dtMeshHeader, ptr %70, i32 0, i32 18
  %72 = getelementptr inbounds [3 x float], ptr %71, i64 0, i64 2
  %73 = load float, ptr %72, align 4
  %74 = load ptr, ptr %7, align 8
  %75 = getelementptr inbounds %struct.dtBVNode, ptr %74, i32 0, i32 0
  %76 = getelementptr inbounds [3 x i16], ptr %75, i64 0, i64 2
  %77 = load i16, ptr %76, align 4
  %78 = zext i16 %77 to i32
  %79 = sitofp i32 %78 to float
  %80 = load float, ptr %5, align 4
  %81 = call float @llvm.fmuladd.f32(float %79, float %80, float %73)
  %82 = load ptr, ptr %4, align 8
  %83 = getelementptr inbounds %struct.dtMeshTile, ptr %82, i32 0, i32 2
  %84 = load ptr, ptr %83, align 8
  %85 = getelementptr inbounds %struct.dtMeshHeader, ptr %84, i32 0, i32 18
  %86 = getelementptr inbounds [3 x float], ptr %85, i64 0, i64 0
  %87 = load float, ptr %86, align 4
  %88 = load ptr, ptr %7, align 8
  %89 = getelementptr inbounds %struct.dtBVNode, ptr %88, i32 0, i32 1
  %90 = getelementptr inbounds [3 x i16], ptr %89, i64 0, i64 0
  %91 = load i16, ptr %90, align 2
  %92 = zext i16 %91 to i32
  %93 = sitofp i32 %92 to float
  %94 = load float, ptr %5, align 4
  %95 = call float @llvm.fmuladd.f32(float %93, float %94, float %87)
  %96 = load ptr, ptr %4, align 8
  %97 = getelementptr inbounds %struct.dtMeshTile, ptr %96, i32 0, i32 2
  %98 = load ptr, ptr %97, align 8
  %99 = getelementptr inbounds %struct.dtMeshHeader, ptr %98, i32 0, i32 18
  %100 = getelementptr inbounds [3 x float], ptr %99, i64 0, i64 1
  %101 = load float, ptr %100, align 4
  %102 = load ptr, ptr %7, align 8
  %103 = getelementptr inbounds %struct.dtBVNode, ptr %102, i32 0, i32 1
  %104 = getelementptr inbounds [3 x i16], ptr %103, i64 0, i64 1
  %105 = load i16, ptr %104, align 2
  %106 = zext i16 %105 to i32
  %107 = sitofp i32 %106 to float
  %108 = load float, ptr %5, align 4
  %109 = call float @llvm.fmuladd.f32(float %107, float %108, float %101)
  %110 = load ptr, ptr %4, align 8
  %111 = getelementptr inbounds %struct.dtMeshTile, ptr %110, i32 0, i32 2
  %112 = load ptr, ptr %111, align 8
  %113 = getelementptr inbounds %struct.dtMeshHeader, ptr %112, i32 0, i32 18
  %114 = getelementptr inbounds [3 x float], ptr %113, i64 0, i64 2
  %115 = load float, ptr %114, align 4
  %116 = load ptr, ptr %7, align 8
  %117 = getelementptr inbounds %struct.dtBVNode, ptr %116, i32 0, i32 1
  %118 = getelementptr inbounds [3 x i16], ptr %117, i64 0, i64 2
  %119 = load i16, ptr %118, align 2
  %120 = zext i16 %119 to i32
  %121 = sitofp i32 %120 to float
  %122 = load float, ptr %5, align 4
  %123 = call float @llvm.fmuladd.f32(float %121, float %122, float %115)
  %124 = call noundef i32 @_Z6duRGBAiiii(i32 noundef 255, i32 noundef 255, i32 noundef 255, i32 noundef 128)
  call void @_Z15duAppendBoxWireP11duDebugDrawffffffj(ptr noundef %39, float noundef %53, float noundef %67, float noundef %81, float noundef %95, float noundef %109, float noundef %123, i32 noundef %124)
  br label %125

125:                                              ; preds = %38, %37
  %126 = load i32, ptr %6, align 4
  %127 = add nsw i32 %126, 1
  store i32 %127, ptr %6, align 4
  br label %18, !llvm.loop !18

128:                                              ; preds = %18
  %129 = load ptr, ptr %3, align 8
  %130 = load ptr, ptr %129, align 8
  %131 = getelementptr inbounds ptr, ptr %130, i64 9
  %132 = load ptr, ptr %131, align 8
  call void %132(ptr noundef nonnull align 8 dereferenceable(8) %129)
  ret void
}

; Function Attrs: mustprogress uwtable
define void @_Z24duDebugDrawNavMeshBVTreeP11duDebugDrawRK9dtNavMesh(ptr noundef %0, ptr noundef nonnull align 8 dereferenceable(100) %1) #0 {
  %3 = alloca ptr, align 8
  %4 = alloca ptr, align 8
  %5 = alloca i32, align 4
  %6 = alloca ptr, align 8
  store ptr %0, ptr %3, align 8
  store ptr %1, ptr %4, align 8
  %7 = load ptr, ptr %3, align 8
  %8 = icmp ne ptr %7, null
  br i1 %8, label %10, label %9

9:                                                ; preds = %2
  br label %31

10:                                               ; preds = %2
  store i32 0, ptr %5, align 4
  br label %11

11:                                               ; preds = %28, %10
  %12 = load i32, ptr %5, align 4
  %13 = load ptr, ptr %4, align 8
  %14 = call noundef i32 @_ZNK9dtNavMesh11getMaxTilesEv(ptr noundef nonnull align 8 dereferenceable(100) %13)
  %15 = icmp slt i32 %12, %14
  br i1 %15, label %16, label %31

16:                                               ; preds = %11
  %17 = load ptr, ptr %4, align 8
  %18 = load i32, ptr %5, align 4
  %19 = call noundef ptr @_ZNK9dtNavMesh7getTileEi(ptr noundef nonnull align 8 dereferenceable(100) %17, i32 noundef %18)
  store ptr %19, ptr %6, align 8
  %20 = load ptr, ptr %6, align 8
  %21 = getelementptr inbounds %struct.dtMeshTile, ptr %20, i32 0, i32 2
  %22 = load ptr, ptr %21, align 8
  %23 = icmp ne ptr %22, null
  br i1 %23, label %25, label %24

24:                                               ; preds = %16
  br label %28

25:                                               ; preds = %16
  %26 = load ptr, ptr %3, align 8
  %27 = load ptr, ptr %6, align 8
  call void @_ZL18drawMeshTileBVTreeP11duDebugDrawPK10dtMeshTile(ptr noundef %26, ptr noundef %27)
  br label %28

28:                                               ; preds = %25, %24
  %29 = load i32, ptr %5, align 4
  %30 = add nsw i32 %29, 1
  store i32 %30, ptr %5, align 4
  br label %11, !llvm.loop !17

31:                                               ; preds = %11, %9
  ret void
}