; Function Attrs: mustprogress uwtable
define void @_Z24duDebugDrawNavMeshBVTreeP11duDebugDrawRK9dtNavMesh(ptr noundef %0, ptr noundef nonnull align 8 dereferenceable(100) %1) local_unnamed_addr #0 {
  %.not = icmp eq ptr %0, null
  br i1 %.not, label %.loopexit, label %.preheader

.preheader:                                       ; preds = %2
  %3 = tail call noundef i32 @_ZNK9dtNavMesh11getMaxTilesEv(ptr noundef nonnull align 8 dereferenceable(100) %1)
  %4 = icmp sgt i32 %3, 0
  br i1 %4, label %.lr.ph, label %.loopexit

.lr.ph:                                           ; preds = %.preheader, %66
  %.010 = phi i32 [ %67, %66 ], [ 0, %.preheader ]
  %5 = tail call noundef ptr @_ZNK9dtNavMesh7getTileEi(ptr noundef nonnull align 8 dereferenceable(100) %1, i32 noundef %.010)
  %6 = getelementptr inbounds nuw i8, ptr %5, i64 8
  %7 = load ptr, ptr %6, align 8
  %.not9 = icmp eq ptr %7, null
  br i1 %.not9, label %66, label %8

8:                                                ; preds = %.lr.ph
  %9 = getelementptr inbounds nuw i8, ptr %7, i64 96
  %10 = load float, ptr %9, align 4
  %11 = fdiv float 1.000000e+00, %10
  %12 = load ptr, ptr %0, align 8
  %13 = getelementptr inbounds nuw i8, ptr %12, i64 32
  %14 = load ptr, ptr %13, align 8
  tail call void %14(ptr noundef nonnull align 8 dereferenceable(8) %0, i32 noundef 1, float noundef 1.000000e+00)
  %15 = load ptr, ptr %6, align 8
  %16 = getelementptr inbounds nuw i8, ptr %15, i64 48
  %17 = load i32, ptr %16, align 4
  %18 = icmp sgt i32 %17, 0
  br i1 %18, label %.lr.ph.i, label %_ZL18drawMeshTileBVTreeP11duDebugDrawPK10dtMeshTile.exit

.lr.ph.i:                                         ; preds = %8
  %19 = getelementptr inbounds nuw i8, ptr %5, i64 64
  br label %20

20:                                               ; preds = %57, %.lr.ph.i
  %21 = phi ptr [ %15, %.lr.ph.i ], [ %58, %57 ]
  %indvars.iv.i = phi i64 [ 0, %.lr.ph.i ], [ %indvars.iv.next.i, %57 ]
  %22 = load ptr, ptr %19, align 8
  %23 = getelementptr inbounds nuw %struct.dtBVNode, ptr %22, i64 %indvars.iv.i
  %24 = getelementptr inbounds nuw i8, ptr %23, i64 12
  %25 = load i32, ptr %24, align 4
  %26 = icmp slt i32 %25, 0
  br i1 %26, label %57, label %27

27:                                               ; preds = %20
  %28 = getelementptr inbounds nuw i8, ptr %21, i64 72
  %29 = load float, ptr %28, align 4
  %30 = load i16, ptr %23, align 4
  %31 = uitofp i16 %30 to float
  %32 = tail call float @llvm.fmuladd.f32(float %31, float %11, float %29)
  %33 = getelementptr inbounds nuw i8, ptr %21, i64 76
  %34 = load float, ptr %33, align 4
  %35 = getelementptr inbounds nuw i8, ptr %23, i64 2
  %36 = load i16, ptr %35, align 2
  %37 = uitofp i16 %36 to float
  %38 = tail call float @llvm.fmuladd.f32(float %37, float %11, float %34)
  %39 = getelementptr inbounds nuw i8, ptr %21, i64 80
  %40 = load float, ptr %39, align 4
  %41 = getelementptr inbounds nuw i8, ptr %23, i64 4
  %42 = load i16, ptr %41, align 4
  %43 = uitofp i16 %42 to float
  %44 = tail call float @llvm.fmuladd.f32(float %43, float %11, float %40)
  %45 = getelementptr inbounds nuw i8, ptr %23, i64 6
  %46 = load i16, ptr %45, align 2
  %47 = uitofp i16 %46 to float
  %48 = tail call float @llvm.fmuladd.f32(float %47, float %11, float %29)
  %49 = getelementptr inbounds nuw i8, ptr %23, i64 8
  %50 = load i16, ptr %49, align 2
  %51 = uitofp i16 %50 to float
  %52 = tail call float @llvm.fmuladd.f32(float %51, float %11, float %34)
  %53 = getelementptr inbounds nuw i8, ptr %23, i64 10
  %54 = load i16, ptr %53, align 2
  %55 = uitofp i16 %54 to float
  %56 = tail call float @llvm.fmuladd.f32(float %55, float %11, float %40)
  tail call void @_Z15duAppendBoxWireP11duDebugDrawffffffj(ptr noundef nonnull %0, float noundef %32, float noundef %38, float noundef %44, float noundef %48, float noundef %52, float noundef %56, i32 noundef -2130706433)
  %.pre.i = load ptr, ptr %6, align 8
  br label %57

57:                                               ; preds = %27, %20
  %58 = phi ptr [ %21, %20 ], [ %.pre.i, %27 ]
  %indvars.iv.next.i = add nuw nsw i64 %indvars.iv.i, 1
  %59 = getelementptr inbounds nuw i8, ptr %58, i64 48
  %60 = load i32, ptr %59, align 4
  %61 = sext i32 %60 to i64
  %62 = icmp slt i64 %indvars.iv.next.i, %61
  br i1 %62, label %20, label %_ZL18drawMeshTileBVTreeP11duDebugDrawPK10dtMeshTile.exit, !llvm.loop !18

_ZL18drawMeshTileBVTreeP11duDebugDrawPK10dtMeshTile.exit: ; preds = %57, %8
  %63 = load ptr, ptr %0, align 8
  %64 = getelementptr inbounds nuw i8, ptr %63, i64 72
  %65 = load ptr, ptr %64, align 8
  tail call void %65(ptr noundef nonnull align 8 dereferenceable(8) %0)
  br label %66

66:                                               ; preds = %.lr.ph, %_ZL18drawMeshTileBVTreeP11duDebugDrawPK10dtMeshTile.exit
  %67 = add nuw nsw i32 %.010, 1
  %68 = tail call noundef i32 @_ZNK9dtNavMesh11getMaxTilesEv(ptr noundef nonnull align 8 dereferenceable(100) %1)
  %69 = icmp slt i32 %67, %68
  br i1 %69, label %.lr.ph, label %.loopexit, !llvm.loop !19

.loopexit:                                        ; preds = %66, %.preheader, %2
  ret void
}